; Function Attrs: nounwind uwtable
define dso_local void @trace2_region_leave_printf_fl(ptr noundef %0, i32 noundef %1, ptr noundef %2, ptr noundef %3, ptr noundef %4, ptr noundef %5, ...) local_unnamed_addr #0 {
  %7 = alloca [1 x %struct.__va_list_tag], align 16
  call void @llvm.lifetime.start.p0(i64 24, ptr nonnull %7) #11
  call void @llvm.va_start.p0(ptr nonnull %7)
  %.b.i = load i1, ptr @trace2_enabled, align 4
  br i1 %.b.i, label %8, label %trace2_region_leave_printf_va_fl.exit

8:                                                ; preds = %6
  %9 = call i64 @getnanotime() #11
  %10 = udiv i64 %9, 1000
  %11 = call i64 @tr2tls_absolute_elapsed(i64 noundef %10) #11
  %12 = call i64 @tr2tls_region_elasped_self(i64 noundef %10) #11
  call void @tr2tls_pop_self() #11
  br label %13

13:                                               ; preds = %20, %8
  %indvars.iv.i = phi i64 [ 0, %8 ], [ %indvars.iv.next.i, %20 ]
  %.022.i = phi ptr [ @tr2_tgt_normal, %8 ], [ %22, %20 ]
  %14 = load ptr, ptr %.022.i, align 8, !tbaa !14
  %15 = call i32 @tr2_dst_trace_want(ptr noundef %14) #11
  %.not19.i = icmp eq i32 %15, 0
  br i1 %.not19.i, label %20, label %16

16:                                               ; preds = %13
  %17 = getelementptr inbounds nuw i8, ptr %.022.i, i64 192
  %18 = load ptr, ptr %17, align 8, !tbaa !74
  %.not20.i = icmp eq ptr %18, null
  br i1 %.not20.i, label %20, label %19

19:                                               ; preds = %16
  call void %18(ptr noundef %0, i32 noundef %1, i64 noundef %11, i64 noundef %12, ptr noundef %2, ptr noundef %3, ptr noundef %4, ptr noundef %5, ptr noundef nonnull %7) #11
  br label %20

20:                                               ; preds = %19, %16, %13
  %indvars.iv.next.i = add nuw nsw i64 %indvars.iv.i, 1
  %21 = getelementptr inbounds nuw [4 x ptr], ptr @tr2_tgt_builtins, i64 0, i64 %indvars.iv.next.i
  %22 = load ptr, ptr %21, align 8, !tbaa !10
  %.not.i = icmp eq i64 %indvars.iv.next.i, 3
  br i1 %.not.i, label %trace2_region_leave_printf_va_fl.exit, label %13, !llvm.loop !75

trace2_region_leave_printf_va_fl.exit:            ; preds = %20, %6
  call void @llvm.va_end.p0(ptr nonnull %7)
  call void @llvm.lifetime.end.p0(i64 24, ptr nonnull %7) #11
  ret void
}